(dp1
S'output'
p2
S'Unable to open included view file: /Users/justin/Dropbox/183/UCSCCourseFinder/web2py/applications/coursefinder/views/js/map.js'
p3
sS'layer'
p4
S'ParserContainer'
p5
sS'code'
p6
S'{{extend \'layout.html\'}}\n<script src="//code.jquery.com/jquery-1.11.2.min.js"></script>\n<script src="//code.jquery.com/jquery-migrate-1.2.1.min.js"></script>\n<script src="http://ajax.aspnetcdn.com/ajax/jQuery/jquery-1.12.0.min.js"></script>\n\n<h1> UCSC Course Finder </h1>\n{{=form}}\n\n<hr />\n{{if results is not None:}}\n{{for result in results:}}\n<div class="one" id="command" onclick="jQuery(\'#{{=result.id}}\').slideToggle()">\n<p>{{=result.course}}</p>\n<p>{{=result.instructor}}</p>\n<p>\n{{if(result.m):}} M {{pass}}\n{{if(result.tu):}} Tu {{pass}}\n{{if(result.w):}} W {{pass}}\n{{if(result.th):}} Th {{pass}}\n{{if(result.fr):}} F {{pass}}\n</p>\n</div>\n<div class="two" style="display:none" id="{{=result.id}}">\n<p>{{=result.info}}</p>\n<p>{{=result.meeting_times}}</p>\n<p>Units: {{=result.units}}</p>\n<p>Prerequisite(s): {{=result.prerequisite}}</p>\n<p>Classroom: {{=result.classroom_no}}</p>\n\n<head>\n    <style type="text/css">\n      html, body { height: 100%; margin: 0; padding: 0; }\n      #map { height: 100%; }\n    </style>\n</head>\n  <body>\n    <div id="map"></div>\n    <script async defer\n        src="https://maps.googleapis.com/maps/api/js?key=AIzaSyB69zJivNkMdxdbY1FNGYfZNVSs4QQjkpw\t\n\t\t\n        &libraries=visualization&callback=initMap">\n    </script>\n    <script src="map.js"> </script>\n  </body>\n\n\n</div>\n<hr />\n{{pass}}\n{{pass}}\n\n\n\n<a href="#" class =\'back-to-top\'>Back to Top</a>\n\n{{include \'js/map.js\'}}\n\n<style>\na.back-to-top{\n    display: inline-block;\n    width:48px;\n    height:48px;\n    position:fixed;\n    bottom:40px;\n    right:40px;\n    background: url(\'http://127.0.0.1:8000/coursefinder/static/_2.13.4/images/up.png\') no-repeat center 43%;\n    text-indent:-9999px;\n    border-radius:30px;\n}\n    \na:hover.back-to-top{\n    background-color:#000;\n</style>\n'
p7
sS'snapshot'
p8
(dp9
S'exception'
p10
(dp11
S'__getslice__'
p12
S"<method-wrapper '__getslice__' of exceptions.IOError object>"
p13
sS'__str__'
p14
S"<method-wrapper '__str__' of exceptions.IOError object>"
p15
sS'__reduce__'
p16
S'<built-in method __reduce__ of exceptions.IOError object>'
p17
sS'__dict__'
p18
S'{}'
p19
sS'__sizeof__'
p20
S'<built-in method __sizeof__ of exceptions.IOError object>'
p21
sS'__init__'
p22
S"<method-wrapper '__init__' of exceptions.IOError object>"
p23
sS'__setattr__'
p24
S"<method-wrapper '__setattr__' of exceptions.IOError object>"
p25
sS'__reduce_ex__'
p26
S'<built-in method __reduce_ex__ of exceptions.IOError object>'
p27
sS'__new__'
p28
S'<built-in method __new__ of type object>'
p29
sS'errno'
p30
S'2'
sS'__format__'
p31
S'<built-in method __format__ of exceptions.IOError object>'
p32
sS'__class__'
p33
S"<type 'exceptions.IOError'>"
p34
sS'filename'
p35
S"'/Users/justin/Dropbox/183/UCSCCourseFinder/web2py/applications/coursefinder/views/js/map.js'"
p36
sS'__doc__'
p37
S"'I/O operation failed.'"
p38
sS'__getitem__'
p39
S"<method-wrapper '__getitem__' of exceptions.IOError object>"
p40
sS'__setstate__'
p41
S'<built-in method __setstate__ of exceptions.IOError object>'
p42
sS'__getattribute__'
p43
S"<method-wrapper '__getattribute__' of exceptions.IOError object>"
p44
sS'args'
p45
S"(2, 'No such file or directory')"
p46
sS'__subclasshook__'
p47
S'<built-in method __subclasshook__ of type object>'
p48
sS'__unicode__'
p49
S'<built-in method __unicode__ of exceptions.IOError object>'
p50
sS'strerror'
p51
S"'No such file or directory'"
p52
sS'__delattr__'
p53
S"<method-wrapper '__delattr__' of exceptions.IOError object>"
p54
sS'__repr__'
p55
S"<method-wrapper '__repr__' of exceptions.IOError object>"
p56
sS'__hash__'
p57
S"<method-wrapper '__hash__' of exceptions.IOError object>"
p58
ssS'evalue'
p59
S"[Errno 2] No such file or directory: '/Users/justin/Dropbox/183/UCSCCourseFinder/web2py/applications/coursefinder/views/js/map.js'"
p60
sS'frames'
p61
(lp62
(dp63
S'file'
p64
S'/Users/justin/Dropbox/183/UCSCCourseFinder/web2py/gluon/template.py'
p65
sS'dump'
p66
(dp67
S'builtinopen'
p68
S'<built-in function open>'
p69
sS'fileobj'
p70
S'undefined'
p71
sS'filepath'
p72
S"'/Users/justin/Dropbox/183/UCSCCourseFinder/web2py/applications/coursefinder/views/js/map.js'"
p73
ssS'lnum'
p74
I450
sS'lines'
p75
(dp76
I448
S'        # try to read the text.'
p77
sI449
S'        try:'
p78
sI450
S"            fileobj = open(filepath, 'rb')"
p79
sI451
S'            text = fileobj.read()'
p80
sI452
S'            fileobj.close()'
p81
sI453
S'        except IOError:'
p82
sI454
S"            self._raise_error('Unable to open included view file: ' + filepath)"
p83
sI445
S'        # Get the path of the file on the system.'
p84
sI446
S'        filepath = self.path and os.path.join(self.path, filename) or filename'
p85
sI447
S''
ssS'call'
p86
S"(self=<gluon.template.TemplateParser object>, filename='js/map.js')"
p87
sS'func'
p88
S'_get_file_text'
p89
sasS'pyver'
p90
S'Python 2.7.8: /usr/local/opt/python/bin/python2.7 (prefix: /usr/local/Cellar/python/2.7.8_2/Frameworks/Python.framework/Versions/2.7)'
p91
sS'etype'
p92
S"<type 'exceptions.IOError'>"
p93
sS'date'
p94
S'Tue Mar  8 20:00:59 2016'
p95
sS'locals'
p96
(dp97
S'self'
p98
S'<gluon.template.TemplateParser object>'
p99
sS'filepath'
p100
S"'/Users/justin/Dropbox/183/UCSCCourseFinder/web2py/applications/coursefinder/views/js/map.js'"
p101
sS'context'
p102
S"{'A': <class 'gluon.html.A'>, 'ANY_OF': <class 'gluon.validators.ANY_OF'>, 'ASSIGNJS': <function ASSIGNJS>, 'AppConfig': <function AppConfig>, 'Auth': <class 'gluon.tools.Auth'>, 'B': <class 'gluon.html.B'>, 'BEAUTIFY': <class 'gluon.html.BEAUTIFY'>, 'BODY': <class 'gluon.html.BODY'>, 'BR': <class 'gluon.html.BR'>, 'BUTTON': <class 'gluon.html.BUTTON'>, ...}"
p103
sg35
S"'js/map.js'"
p104
sssS'traceback'
p105
S'Traceback (most recent call last):\n  File "/Users/justin/Dropbox/183/UCSCCourseFinder/web2py/gluon/template.py", line 450, in _get_file_text\n    fileobj = open(filepath, \'rb\')\nIOError: [Errno 2] No such file or directory: \'/Users/justin/Dropbox/183/UCSCCourseFinder/web2py/applications/coursefinder/views/js/map.js\'\n'
p106
s.