(dp1
S'output'
p2
S"<type 'exceptions.KeyError'> 'Cannot resolve reference list search in auth_user definition'"
p3
sS'layer'
p4
S'/Users/justin/Dropbox/183/UCSCCourseFinder/web2py/applications/coursefinder/models/db.py'
p5
sS'code'
p6
S'# -*- coding: utf-8 -*-\n\n#########################################################################\n## This scaffolding model makes your app work on Google App Engine too\n## File is released under public domain and you can use without limitations\n#########################################################################\n\n## if SSL/HTTPS is properly configured and you want all HTTP requests to\n## be redirected to HTTPS, uncomment the line below:\n# request.requires_https()\n\n## app configuration made easy. Look inside private/appconfig.ini\nfrom gluon.contrib.appconfig import AppConfig\n## once in production, remove reload=True to gain full speed\nmyconf = AppConfig(reload=True)\n\n#new comment\n\nif not request.env.web2py_runtime_gae:\n    ## if NOT running on Google App Engine use SQLite or other DB\n    db = DAL(myconf.take(\'db.uri\'), pool_size=myconf.take(\'db.pool_size\', cast=int), check_reserved=[\'all\'])\nelse:\n    ## connect to Google BigTable (optional \'google:datastore://namespace\')\n    db = DAL(\'google:datastore+ndb\')\n    ## store sessions and tickets there\n    session.connect(request, response, db=db)\n    ## or store session in Memcache, Redis, etc.\n    ## from gluon.contrib.memdb import MEMDB\n    ## from google.appengine.api.memcache import Client\n    ## session.connect(request, response, db = MEMDB(Client()))\n\n## by default give a view/generic.extension to all actions from localhost\n## none otherwise. a pattern can be \'controller/function.extension\'\nresponse.generic_patterns = [\'*\'] if request.is_local else []\n## choose a style for forms\nresponse.formstyle = myconf.take(\'forms.formstyle\')  # or \'bootstrap3_stacked\' or \'bootstrap2\' or other\nresponse.form_label_separator = myconf.take(\'forms.separator\')\n\n\n## (optional) optimize handling of static files\n# response.optimize_css = \'concat,minify,inline\'\n# response.optimize_js = \'concat,minify,inline\'\n## (optional) static assets folder versioning\n# response.static_version = \'0.0.0\'\n#########################################################################\n## Here is sample code if you need for\n## - email capabilities\n## - authentication (registration, login, logout, ... )\n## - authorization (role based authorization)\n## - services (xml, csv, json, xmlrpc, jsonrpc, amf, rss)\n## - old style crud actions\n## (more options discussed in gluon/tools.py)\n#########################################################################\n\nfrom gluon.tools import Auth, Service, PluginManager\n\nauth = Auth(db)\n\ndb = DAL("sqlite://storage.sqlite")\n\ncurrent_term = \'2016 Winter\'\nterm = [\'2016 Spring\', \'2016 Winter\', \'2016 Summer\', \'2016 Fall\']\nstatus = [\'Open Classes\', \'All Classes\']\nsubject = [\'All Subjects\', \'Computer Engineering\', \'Computer Science\']\n\n\ndb.define_table(\'search\',\n\tField(\'term\', default=current_term),\n\tField(\'status\', default=\'All Classes\'),\n\tField(\'subject\', default=\'All Subjects\'),\n\tField(\'course\', type=\'string\'),\n\tField(\'instructor\', type=\'string\'),\n\tField(\'units\', type=\'integer\'),\n\tField(\'m\', type=\'boolean\', default=False),\n\tField(\'tu\', type=\'boolean\', default=False),\n\tField(\'w\', type=\'boolean\', default=False),\n\tField(\'th\', type=\'boolean\', default=False),\n\tField(\'fr\', type=\'boolean\', default=False),\n\tField(\'meeting_times\', type=\'time\'),\n\tField(\'info\', type=\'string\'),\n    Field(\'prerequisite\', type=\'string\'),\n    Field(\'classroom_no\', type=\'string\'))\n\nauth.settings.extra_fields[\'auth_user\']= [\n\tField(\'courses\', \'reference:list search\'),\n\t]\n\nservice = Service()\nplugins = PluginManager()\n\n## create all tables needed by auth if not custom tables\nauth.define_tables(username=False, signature=False)\n\n## configure email\nmail = auth.settings.mailer\nmail.settings.server = \'logging\' if request.is_local else myconf.take(\'smtp.server\')\nmail.settings.sender = myconf.take(\'smtp.sender\')\nmail.settings.login = myconf.take(\'smtp.login\')\n\n## configure auth policy\nauth.settings.registration_requires_verification = False\nauth.settings.registration_requires_approval = False\nauth.settings.reset_password_requires_verification = True\n\n#########################################################################\n## Define your tables below (or better in another model file) for example\n##\n## >>> db.define_table(\'mytable\',Field(\'myfield\',\'string\'))\n##\n## Fields can be \'string\',\'text\',\'password\',\'integer\',\'double\',\'boolean\'\n##       \'date\',\'time\',\'datetime\',\'blob\',\'upload\', \'reference TABLENAME\'\n## There is an implicit \'id integer autoincrement\' field\n## Consult manual for more options, validators, etc.\n##\n## More API examples for controllers:\n##\n## >>> db.mytable.insert(myfield=\'value\')\n## >>> rows=db(db.mytable.myfield==\'value\').select(db.mytable.ALL)\n## >>> for row in rows: print row.id, row.myfield\n#########################################################################\n\n## after defining tables, uncomment below to enable auditing\n# auth.enable_record_versioning(db)\n\n\n\n\ndb.search.term.requires = IS_IN_SET(term)\ndb.search.status.requires = IS_IN_SET(status)\ndb.search.subject.requires = IS_IN_SET(subject)\n'
p7
sS'snapshot'
p8
(dp9
S'exception'
p10
(dp11
S'__hash__'
p12
S"<method-wrapper '__hash__' of exceptions.KeyError object>"
p13
sS'__setattr__'
p14
S"<method-wrapper '__setattr__' of exceptions.KeyError object>"
p15
sS'__reduce_ex__'
p16
S'<built-in method __reduce_ex__ of exceptions.KeyError object>'
p17
sS'__getslice__'
p18
S"<method-wrapper '__getslice__' of exceptions.KeyError object>"
p19
sS'__getitem__'
p20
S"<method-wrapper '__getitem__' of exceptions.KeyError object>"
p21
sS'__setstate__'
p22
S'<built-in method __setstate__ of exceptions.KeyError object>'
p23
sS'args'
p24
S"('Cannot resolve reference list search in auth_user definition',)"
p25
sS'__reduce__'
p26
S'<built-in method __reduce__ of exceptions.KeyError object>'
p27
sS'__str__'
p28
S"<method-wrapper '__str__' of exceptions.KeyError object>"
p29
sS'__format__'
p30
S'<built-in method __format__ of exceptions.KeyError object>'
p31
sS'__getattribute__'
p32
S"<method-wrapper '__getattribute__' of exceptions.KeyError object>"
p33
sS'__class__'
p34
S"<type 'exceptions.KeyError'>"
p35
sS'__unicode__'
p36
S'<built-in method __unicode__ of exceptions.KeyError object>'
p37
sS'__delattr__'
p38
S"<method-wrapper '__delattr__' of exceptions.KeyError object>"
p39
sS'__subclasshook__'
p40
S'<built-in method __subclasshook__ of type object>'
p41
sS'__repr__'
p42
S"<method-wrapper '__repr__' of exceptions.KeyError object>"
p43
sS'__dict__'
p44
S'{}'
p45
sS'__sizeof__'
p46
S'<built-in method __sizeof__ of exceptions.KeyError object>'
p47
sS'__doc__'
p48
S"'Mapping key not found.'"
p49
sS'__init__'
p50
S"<method-wrapper '__init__' of exceptions.KeyError object>"
p51
sS'__new__'
p52
S'<built-in method __new__ of type object>'
p53
ssS'evalue'
p54
S"'Cannot resolve reference list search in auth_user definition'"
p55
sS'request'
p56
cgluon.html
XML_unpickle
p57
(S's\x0b\xa3\x00\x00<div><table><tr><td style="font-weight:bold;vertical-align:top;">ajax</td><td style="vertical-align:top;">:</td><td><div>False</div></td></tr><tr><td style="font-weight:bold;vertical-align:top;">application</td><td style="vertical-align:top;">:</td><td><div>coursefinder</div></td></tr><tr><td style="font-weight:bold;vertical-align:top;">args</td><td style="vertical-align:top;">:</td><td><div><table></table></div></td></tr><tr><td style="font-weight:bold;vertical-align:top;">cid</td><td style="vertical-align:top;">:</td><td><div>None</div></td></tr><tr><td style="font-weight:bold;vertical-align:top;">client</td><td style="vertical-align:top;">:</td><td><div>127.0.0.1</div></td></tr><tr><td style="font-weight:bold;vertical-align:top;">controller</td><td style="vertical-align:top;">:</td><td><div>default</div></td></tr><tr><td style="font-weight:bold;vertical-align:top;">cookies</td><td style="vertical-align:top;">:</td><td><div><table><tr><td style="font-weight:bold;vertical-align:top;">csrftoken</td><td style="vertical-align:top;">:</td><td><div>NhgWN9mSffVIXFJY89WikPME4j26JbeB<table><tr><td style="font-weight:bold;vertical-align:top;">comment</td><td style="vertical-align:top;">:</td><td><div></div></td></tr><tr><td style="font-weight:bold;vertical-align:top;">domain</td><td style="vertical-align:top;">:</td><td><div></div></td></tr><tr><td style="font-weight:bold;vertical-align:top;">expires</td><td style="vertical-align:top;">:</td><td><div></div></td></tr><tr><td style="font-weight:bold;vertical-align:top;">httponly</td><td style="vertical-align:top;">:</td><td><div></div></td></tr><tr><td style="font-weight:bold;vertical-align:top;">max-age</td><td style="vertical-align:top;">:</td><td><div></div></td></tr><tr><td style="font-weight:bold;vertical-align:top;">path</td><td style="vertical-align:top;">:</td><td><div></div></td></tr><tr><td style="font-weight:bold;vertical-align:top;">secure</td><td style="vertical-align:top;">:</td><td><div></div></td></tr><tr><td style="font-weight:bold;vertical-align:top;">version</td><td style="vertical-align:top;">:</td><td><div></div></td></tr></table></div></td></tr><tr><td style="font-weight:bold;vertical-align:top;">session_id_admin</td><td style="vertical-align:top;">:</td><td><div>127.0.0.1-9f0740f6-fa21-40e0-9407-7b3944f25c6b<table><tr><td style="font-weight:bold;vertical-align:top;">comment</td><td style="vertical-align:top;">:</td><td><div></div></td></tr><tr><td style="font-weight:bold;vertical-align:top;">domain</td><td style="vertical-align:top;">:</td><td><div></div></td></tr><tr><td style="font-weight:bold;vertical-align:top;">expires</td><td style="vertical-align:top;">:</td><td><div></div></td></tr><tr><td style="font-weight:bold;vertical-align:top;">httponly</td><td style="vertical-align:top;">:</td><td><div></div></td></tr><tr><td style="font-weight:bold;vertical-align:top;">max-age</td><td style="vertical-align:top;">:</td><td><div></div></td></tr><tr><td style="font-weight:bold;vertical-align:top;">path</td><td style="vertical-align:top;">:</td><td><div></div></td></tr><tr><td style="font-weight:bold;vertical-align:top;">secure</td><td style="vertical-align:top;">:</td><td><div></div></td></tr><tr><td style="font-weight:bold;vertical-align:top;">version</td><td style="vertical-align:top;">:</td><td><div></div></td></tr></table></div></td></tr><tr><td style="font-weight:bold;vertical-align:top;">session_id_ajax</td><td style="vertical-align:top;">:</td><td><div>127.0.0.1-81473164-c6f7-4f7a-b3ed-af731606aa12<table><tr><td style="font-weight:bold;vertical-align:top;">comment</td><td style="vertical-align:top;">:</td><td><div></div></td></tr><tr><td style="font-weight:bold;vertical-align:top;">domain</td><td style="vertical-align:top;">:</td><td><div></div></td></tr><tr><td style="font-weight:bold;vertical-align:top;">expires</td><td style="vertical-align:top;">:</td><td><div></div></td></tr><tr><td style="font-weight:bold;vertical-align:top;">httponly</td><td style="vertical-align:top;">:</td><td><div></div></td></tr><tr><td style="font-weight:bold;vertical-align:top;">max-age</td><td style="vertical-align:top;">:</td><td><div></div></td></tr><tr><td style="font-weight:bold;vertical-align:top;">path</td><td style="vertical-align:top;">:</td><td><div></div></td></tr><tr><td style="font-weight:bold;vertical-align:top;">secure</td><td style="vertical-align:top;">:</td><td><div></div></td></tr><tr><td style="font-weight:bold;vertical-align:top;">version</td><td style="vertical-align:top;">:</td><td><div></div></td></tr></table></div></td></tr><tr><td style="font-weight:bold;vertical-align:top;">session_id_coursefinder</td><td style="vertical-align:top;">:</td><td><div>127.0.0.1-597c694d-ee7b-4d13-b23f-c2fa993d0d35<table><tr><td style="font-weight:bold;vertical-align:top;">comment</td><td style="vertical-align:top;">:</td><td><div></div></td></tr><tr><td style="font-weight:bold;vertical-align:top;">domain</td><td style="vertical-align:top;">:</td><td><div></div></td></tr><tr><td style="font-weight:bold;vertical-align:top;">expires</td><td style="vertical-align:top;">:</td><td><div></div></td></tr><tr><td style="font-weight:bold;vertical-align:top;">httponly</td><td style="vertical-align:top;">:</td><td><div></div></td></tr><tr><td style="font-weight:bold;vertical-align:top;">max-age</td><td style="vertical-align:top;">:</td><td><div></div></td></tr><tr><td style="font-weight:bold;vertical-align:top;">path</td><td style="vertical-align:top;">:</td><td><div></div></td></tr><tr><td style="font-weight:bold;vertical-align:top;">secure</td><td style="vertical-align:top;">:</td><td><div></div></td></tr><tr><td style="font-weight:bold;vertical-align:top;">version</td><td style="vertical-align:top;">:</td><td><div></div></td></tr></table></div></td></tr><tr><td style="font-weight:bold;vertical-align:top;">session_id_csv</td><td style="vertical-align:top;">:</td><td><div>127.0.0.1-70344242-6569-40a3-8950-18b70cbadf5e<table><tr><td style="font-weight:bold;vertical-align:top;">comment</td><td style="vertical-align:top;">:</td><td><div></div></td></tr><tr><td style="font-weight:bold;vertical-align:top;">domain</td><td style="vertical-align:top;">:</td><td><div></div></td></tr><tr><td style="font-weight:bold;vertical-align:top;">expires</td><td style="vertical-align:top;">:</td><td><div></div></td></tr><tr><td style="font-weight:bold;vertical-align:top;">httponly</td><td style="vertical-align:top;">:</td><td><div></div></td></tr><tr><td style="font-weight:bold;vertical-align:top;">max-age</td><td style="vertical-align:top;">:</td><td><div></div></td></tr><tr><td style="font-weight:bold;vertical-align:top;">path</td><td style="vertical-align:top;">:</td><td><div></div></td></tr><tr><td style="font-weight:bold;vertical-align:top;">secure</td><td style="vertical-align:top;">:</td><td><div></div></td></tr><tr><td style="font-weight:bold;vertical-align:top;">version</td><td style="vertical-align:top;">:</td><td><div></div></td></tr></table></div></td></tr><tr><td style="font-weight:bold;vertical-align:top;">session_id_fifth</td><td style="vertical-align:top;">:</td><td><div>127.0.0.1-ed356242-596b-43a6-a10c-9c1f923da948<table><tr><td style="font-weight:bold;vertical-align:top;">comment</td><td style="vertical-align:top;">:</td><td><div></div></td></tr><tr><td style="font-weight:bold;vertical-align:top;">domain</td><td style="vertical-align:top;">:</td><td><div></div></td></tr><tr><td style="font-weight:bold;vertical-align:top;">expires</td><td style="vertical-align:top;">:</td><td><div></div></td></tr><tr><td style="font-weight:bold;vertical-align:top;">httponly</td><td style="vertical-align:top;">:</td><td><div></div></td></tr><tr><td style="font-weight:bold;vertical-align:top;">max-age</td><td style="vertical-align:top;">:</td><td><div></div></td></tr><tr><td style="font-weight:bold;vertical-align:top;">path</td><td style="vertical-align:top;">:</td><td><div></div></td></tr><tr><td style="font-weight:bold;vertical-align:top;">secure</td><td style="vertical-align:top;">:</td><td><div></div></td></tr><tr><td style="font-weight:bold;vertical-align:top;">version</td><td style="vertical-align:top;">:</td><td><div></div></td></tr></table></div></td></tr><tr><td style="font-weight:bold;vertical-align:top;">session_id_first</td><td style="vertical-align:top;">:</td><td><div>127.0.0.1-9bcd6f24-f5c4-48f0-b380-98af367d6016<table><tr><td style="font-weight:bold;vertical-align:top;">comment</td><td style="vertical-align:top;">:</td><td><div></div></td></tr><tr><td style="font-weight:bold;vertical-align:top;">domain</td><td style="vertical-align:top;">:</td><td><div></div></td></tr><tr><td style="font-weight:bold;vertical-align:top;">expires</td><td style="vertical-align:top;">:</td><td><div></div></td></tr><tr><td style="font-weight:bold;vertical-align:top;">httponly</td><td style="vertical-align:top;">:</td><td><div></div></td></tr><tr><td style="font-weight:bold;vertical-align:top;">max-age</td><td style="vertical-align:top;">:</td><td><div></div></td></tr><tr><td style="font-weight:bold;vertical-align:top;">path</td><td style="vertical-align:top;">:</td><td><div></div></td></tr><tr><td style="font-weight:bold;vertical-align:top;">secure</td><td style="vertical-align:top;">:</td><td><div></div></td></tr><tr><td style="font-weight:bold;vertical-align:top;">version</td><td style="vertical-align:top;">:</td><td><div></div></td></tr></table></div></td></tr><tr><td style="font-weight:bold;vertical-align:top;">session_id_first_one</td><td style="vertical-align:top;">:</td><td><div>127.0.0.1-622e2bf1-3e0a-4a68-afee-a1eaacf2a6d6<table><tr><td style="font-weight:bold;vertical-align:top;">comment</td><td style="vertical-align:top;">:</td><td><div></div></td></tr><tr><td style="font-weight:bold;vertical-align:top;">domain</td><td style="vertical-align:top;">:</td><td><div></div></td></tr><tr><td style="font-weight:bold;vertical-align:top;">expires</td><td style="vertical-align:top;">:</td><td><div></div></td></tr><tr><td style="font-weight:bold;vertical-align:top;">httponly</td><td style="vertical-align:top;">:</td><td><div></div></td></tr><tr><td style="font-weight:bold;vertical-align:top;">max-age</td><td style="vertical-align:top;">:</td><td><div></div></td></tr><tr><td style="font-weight:bold;vertical-align:top;">path</td><td style="vertical-align:top;">:</td><td><div></div></td></tr><tr><td style="font-weight:bold;vertical-align:top;">secure</td><td style="vertical-align:top;">:</td><td><div></div></td></tr><tr><td style="font-weight:bold;vertical-align:top;">version</td><td style="vertical-align:top;">:</td><td><div></div></td></tr></table></div></td></tr><tr><td style="font-weight:bold;vertical-align:top;">session_id_for_sale_listing</td><td style="vertical-align:top;">:</td><td><div>127.0.0.1-10ea11a8-d113-4d7b-9190-a84674607f81<table><tr><td style="font-weight:bold;vertical-align:top;">comment</td><td style="vertical-align:top;">:</td><td><div></div></td></tr><tr><td style="font-weight:bold;vertical-align:top;">domain</td><td style="vertical-align:top;">:</td><td><div></div></td></tr><tr><td style="font-weight:bold;vertical-align:top;">expires</td><td style="vertical-align:top;">:</td><td><div></div></td></tr><tr><td style="font-weight:bold;vertical-align:top;">httponly</td><td style="vertical-align:top;">:</td><td><div></div></td></tr><tr><td style="font-weight:bold;vertical-align:top;">max-age</td><td style="vertical-align:top;">:</td><td><div></div></td></tr><tr><td style="font-weight:bold;vertical-align:top;">path</td><td style="vertical-align:top;">:</td><td><div></div></td></tr><tr><td style="font-weight:bold;vertical-align:top;">secure</td><td style="vertical-align:top;">:</td><td><div></div></td></tr><tr><td style="font-weight:bold;vertical-align:top;">version</td><td style="vertical-align:top;">:</td><td><div></div></td></tr></table></div></td></tr><tr><td style="font-weight:bold;vertical-align:top;">session_id_four</td><td style="vertical-align:top;">:</td><td><div>127.0.0.1-3f9e77a4-c67e-4340-9d2a-5719a41864ca<table><tr><td style="font-weight:bold;vertical-align:top;">comment</td><td style="vertical-align:top;">:</td><td><div></div></td></tr><tr><td style="font-weight:bold;vertical-align:top;">domain</td><td style="vertical-align:top;">:</td><td><div></div></td></tr><tr><td style="font-weight:bold;vertical-align:top;">expires</td><td style="vertical-align:top;">:</td><td><div></div></td></tr><tr><td style="font-weight:bold;vertical-align:top;">httponly</td><td style="vertical-align:top;">:</td><td><div></div></td></tr><tr><td style="font-weight:bold;vertical-align:top;">max-age</td><td style="vertical-align:top;">:</td><td><div></div></td></tr><tr><td style="font-weight:bold;vertical-align:top;">path</td><td style="vertical-align:top;">:</td><td><div></div></td></tr><tr><td style="font-weight:bold;vertical-align:top;">secure</td><td style="vertical-align:top;">:</td><td><div></div></td></tr><tr><td style="font-weight:bold;vertical-align:top;">version</td><td style="vertical-align:top;">:</td><td><div></div></td></tr></table></div></td></tr><tr><td style="font-weight:bold;vertical-align:top;">session_id_images</td><td style="vertical-align:top;">:</td><td><div>127.0.0.1-c197e2d1-38f8-4eec-b05a-4876879ae3ac<table><tr><td style="font-weight:bold;vertical-align:top;">comment</td><td style="vertical-align:top;">:</td><td><div></div></td></tr><tr><td style="font-weight:bold;vertical-align:top;">domain</td><td style="vertical-align:top;">:</td><td><div></div></td></tr><tr><td style="font-weight:bold;vertical-align:top;">expires</td><td style="vertical-align:top;">:</td><td><div></div></td></tr><tr><td style="font-weight:bold;vertical-align:top;">httponly</td><td style="vertical-align:top;">:</td><td><div></div></td></tr><tr><td style="font-weight:bold;vertical-align:top;">max-age</td><td style="vertical-align:top;">:</td><td><div></div></td></tr><tr><td style="font-weight:bold;vertical-align:top;">path</td><td style="vertical-align:top;">:</td><td><div></div></td></tr><tr><td style="font-weight:bold;vertical-align:top;">secure</td><td style="vertical-align:top;">:</td><td><div></div></td></tr><tr><td style="font-weight:bold;vertical-align:top;">version</td><td style="vertical-align:top;">:</td><td><div></div></td></tr></table></div></td></tr><tr><td style="font-weight:bold;vertical-align:top;">session_id_myapp</td><td style="vertical-align:top;">:</td><td><div>127.0.0.1-c655c996-fe7d-46a9-9558-0a89743d1b2a<table><tr><td style="font-weight:bold;vertical-align:top;">comment</td><td style="vertical-align:top;">:</td><td><div></div></td></tr><tr><td style="font-weight:bold;vertical-align:top;">domain</td><td style="vertical-align:top;">:</td><td><div></div></td></tr><tr><td style="font-weight:bold;vertical-align:top;">expires</td><td style="vertical-align:top;">:</td><td><div></div></td></tr><tr><td style="font-weight:bold;vertical-align:top;">httponly</td><td style="vertical-align:top;">:</td><td><div></div></td></tr><tr><td style="font-weight:bold;vertical-align:top;">max-age</td><td style="vertical-align:top;">:</td><td><div></div></td></tr><tr><td style="font-weight:bold;vertical-align:top;">path</td><td style="vertical-align:top;">:</td><td><div></div></td></tr><tr><td style="font-weight:bold;vertical-align:top;">secure</td><td style="vertical-align:top;">:</td><td><div></div></td></tr><tr><td style="font-weight:bold;vertical-align:top;">version</td><td style="vertical-align:top;">:</td><td><div></div></td></tr></table></div></td></tr><tr><td style="font-weight:bold;vertical-align:top;">session_id_query</td><td style="vertical-align:top;">:</td><td><div>127.0.0.1-0f82395c-3640-43df-93cf-4b6b01be1116<table><tr><td style="font-weight:bold;vertical-align:top;">comment</td><td style="vertical-align:top;">:</td><td><div></div></td></tr><tr><td style="font-weight:bold;vertical-align:top;">domain</td><td style="vertical-align:top;">:</td><td><div></div></td></tr><tr><td style="font-weight:bold;vertical-align:top;">expires</td><td style="vertical-align:top;">:</td><td><div></div></td></tr><tr><td style="font-weight:bold;vertical-align:top;">httponly</td><td style="vertical-align:top;">:</td><td><div></div></td></tr><tr><td style="font-weight:bold;vertical-align:top;">max-age</td><td style="vertical-align:top;">:</td><td><div></div></td></tr><tr><td style="font-weight:bold;vertical-align:top;">path</td><td style="vertical-align:top;">:</td><td><div></div></td></tr><tr><td style="font-weight:bold;vertical-align:top;">secure</td><td style="vertical-align:top;">:</td><td><div></div></td></tr><tr><td style="font-weight:bold;vertical-align:top;">version</td><td style="vertical-align:top;">:</td><td><div></div></td></tr></table></div></td></tr><tr><td style="font-weight:bold;vertical-align:top;">session_id_second</td><td style="vertical-align:top;">:</td><td><div>127.0.0.1-a8aac3f3-c4bc-47a3-90ba-59e382129914<table><tr><td style="font-weight:bold;vertical-align:top;">comment</td><td style="vertical-align:top;">:</td><td><div></div></td></tr><tr><td style="font-weight:bold;vertical-align:top;">domain</td><td style="vertical-align:top;">:</td><td><div></div></td></tr><tr><td style="font-weight:bold;vertical-align:top;">expires</td><td style="vertical-align:top;">:</td><td><div></div></td></tr><tr><td style="font-weight:bold;vertical-align:top;">httponly</td><td style="vertical-align:top;">:</td><td><div></div></td></tr><tr><td style="font-weight:bold;vertical-align:top;">max-age</td><td style="vertical-align:top;">:</td><td><div></div></td></tr><tr><td style="font-weight:bold;vertical-align:top;">path</td><td style="vertical-align:top;">:</td><td><div></div></td></tr><tr><td style="font-weight:bold;vertical-align:top;">secure</td><td style="vertical-align:top;">:</td><td><div></div></td></tr><tr><td style="font-weight:bold;vertical-align:top;">version</td><td style="vertical-align:top;">:</td><td><div></div></td></tr></table></div></td></tr><tr><td style="font-weight:bold;vertical-align:top;">session_id_third</td><td style="vertical-align:top;">:</td><td><div>127.0.0.1-efe93ef6-310a-4f19-9883-0de1cd02cf82<table><tr><td style="font-weight:bold;vertical-align:top;">comment</td><td style="vertical-align:top;">:</td><td><div></div></td></tr><tr><td style="font-weight:bold;vertical-align:top;">domain</td><td style="vertical-align:top;">:</td><td><div></div></td></tr><tr><td style="font-weight:bold;vertical-align:top;">expires</td><td style="vertical-align:top;">:</td><td><div></div></td></tr><tr><td style="font-weight:bold;vertical-align:top;">httponly</td><td style="vertical-align:top;">:</td><td><div></div></td></tr><tr><td style="font-weight:bold;vertical-align:top;">max-age</td><td style="vertical-align:top;">:</td><td><div></div></td></tr><tr><td style="font-weight:bold;vertical-align:top;">path</td><td style="vertical-align:top;">:</td><td><div></div></td></tr><tr><td style="font-weight:bold;vertical-align:top;">secure</td><td style="vertical-align:top;">:</td><td><div></div></td></tr><tr><td style="font-weight:bold;vertical-align:top;">version</td><td style="vertical-align:top;">:</td><td><div></div></td></tr></table></div></td></tr><tr><td style="font-weight:bold;vertical-align:top;">session_id_welcome</td><td style="vertical-align:top;">:</td><td><div>127.0.0.1-3f40779a-83ae-4d94-b2d6-5b267def6ee7<table><tr><td style="font-weight:bold;vertical-align:top;">comment</td><td style="vertical-align:top;">:</td><td><div></div></td></tr><tr><td style="font-weight:bold;vertical-align:top;">domain</td><td style="vertical-align:top;">:</td><td><div></div></td></tr><tr><td style="font-weight:bold;vertical-align:top;">expires</td><td style="vertical-align:top;">:</td><td><div></div></td></tr><tr><td style="font-weight:bold;vertical-align:top;">httponly</td><td style="vertical-align:top;">:</td><td><div></div></td></tr><tr><td style="font-weight:bold;vertical-align:top;">max-age</td><td style="vertical-align:top;">:</td><td><div></div></td></tr><tr><td style="font-weight:bold;vertical-align:top;">path</td><td style="vertical-align:top;">:</td><td><div></div></td></tr><tr><td style="font-weight:bold;vertical-align:top;">secure</td><td style="vertical-align:top;">:</td><td><div></div></td></tr><tr><td style="font-weight:bold;vertical-align:top;">version</td><td style="vertical-align:top;">:</td><td><div></div></td></tr></table></div></td></tr></table></div></td></tr><tr><td style="font-weight:bold;vertical-align:top;">env</td><td style="vertical-align:top;">:</td><td><div><table><tr><td style="font-weight:bold;vertical-align:top;">HTTP_ACCEPT</td><td style="vertical-align:top;">:</td><td><div>text/html,application/xhtml+xml,application/xml;q=0.9,image/webp,*/*;q=0.8</div></td></tr><tr><td style="font-weight:bold;vertical-align:top;">HTTP_ACCEPT_ENCODING</td><td style="vertical-align:top;">:</td><td><div>gzip, deflate, sdch</div></td></tr><tr><td style="font-weight:bold;vertical-align:top;">HTTP_ACCEPT_LANGUAGE</td><td style="vertical-align:top;">:</td><td><div>en-US,en;q=0.8</div></td></tr><tr><td style="font-weight:bold;vertical-align:top;">HTTP_CACHE_CONTROL</td><td style="vertical-align:top;">:</td><td><div>max-age=0</div></td></tr><tr><td style="font-weight:bold;vertical-align:top;">HTTP_CONNECTION</td><td style="vertical-align:top;">:</td><td><div>keep-alive</div></td></tr><tr><td style="font-weight:bold;vertical-align:top;">HTTP_COOKIE</td><td style="vertical-align:top;">:</td><td><div>csrftoken=NhgWN9mSffVIXFJY89WikPME4j26JbeB; session_id_myapp=127.0.0.1-c655c996-fe7d-46a9-9558-0a89743d1b2a; session_id_images=127.0.0.1-c197e2d1-38f8-4eec-b05a-4876879ae3ac; session_id_first_one=127.0.0.1-622e2bf1-3e0a-4a68-afee-a1eaacf2a6d6; session_id_third=127.0.0.1-efe93ef6-310a-4f19-9883-0de1cd02cf82; session_id_four=127.0.0.1-3f9e77a4-c67e-4340-9d2a-5719a41864ca; session_id_fifth=127.0.0.1-ed356242-596b-43a6-a10c-9c1f923da948; session_id_csv=127.0.0.1-70344242-6569-40a3-8950-18b70cbadf5e; session_id_first=127.0.0.1-9bcd6f24-f5c4-48f0-b380-98af367d6016; session_id_second=127.0.0.1-a8aac3f3-c4bc-47a3-90ba-59e382129914; session_id_query=127.0.0.1-0f82395c-3640-43df-93cf-4b6b01be1116; session_id_ajax=127.0.0.1-81473164-c6f7-4f7a-b3ed-af731606aa12; session_id_for_sale_listing=127.0.0.1-10ea11a8-d113-4d7b-9190-a84674607f81; session_id_coursefinder=127.0.0.1-597c694d-ee7b-4d13-b23f-c2fa993d0d35; session_id_welcome=127.0.0.1-3f40779a-83ae-4d94-b2d6-5b267def6ee7; session_id_admin=127.0.0.1-9f0740f6-fa21-40e0-9407-7b3944f25c6b</div></td></tr><tr><td style="font-weight:bold;vertical-align:top;">HTTP_HOST</td><td style="vertical-align:top;">:</td><td><div>127.0.0.1:8000</div></td></tr><tr><td style="font-weight:bold;vertical-align:top;">HTTP_UPGRADE_INSECURE_REQUESTS</td><td style="vertical-align:top;">:</td><td><div>1</div></td></tr><tr><td style="font-weight:bold;vertical-align:top;">HTTP_USER_AGENT</td><td style="vertical-align:top;">:</td><td><div>Mozilla/5.0 (Macintosh; Intel Mac OS X 10_11_3) AppleWebKit/537.36 (KHTML, like Gecko) Chrome/48.0.2564.116 Safari/537.36</div></td></tr><tr><td style="font-weight:bold;vertical-align:top;">PATH_INFO</td><td style="vertical-align:top;">:</td><td><div>/coursefinder</div></td></tr><tr><td style="font-weight:bold;vertical-align:top;">QUERY_STRING</td><td style="vertical-align:top;">:</td><td><div></div></td></tr><tr><td style="font-weight:bold;vertical-align:top;">REMOTE_ADDR</td><td style="vertical-align:top;">:</td><td><div>127.0.0.1</div></td></tr><tr><td style="font-weight:bold;vertical-align:top;">REMOTE_PORT</td><td style="vertical-align:top;">:</td><td><div>59817</div></td></tr><tr><td style="font-weight:bold;vertical-align:top;">REQUEST_METHOD</td><td style="vertical-align:top;">:</td><td><div>GET</div></td></tr><tr><td style="font-weight:bold;vertical-align:top;">SCRIPT_NAME</td><td style="vertical-align:top;">:</td><td><div></div></td></tr><tr><td style="font-weight:bold;vertical-align:top;">SERVER_NAME</td><td style="vertical-align:top;">:</td><td><div>justins-MacBook-Air.local</div></td></tr><tr><td style="font-weight:bold;vertical-align:top;">SERVER_PORT</td><td style="vertical-align:top;">:</td><td><div>8000</div></td></tr><tr><td style="font-weight:bold;vertical-align:top;">SERVER_PROTOCOL</td><td style="vertical-align:top;">:</td><td><div>HTTP/1.1</div></td></tr><tr><td style="font-weight:bold;vertical-align:top;">SERVER_SOFTWARE</td><td style="vertical-align:top;">:</td><td><div>Rocket 1.2.6</div></td></tr><tr><td style="font-weight:bold;vertical-align:top;">app_folders</td><td style="vertical-align:top;">:</td><td><div>set([&#x27;/Users/justin/Dropbox/183/UCSCCourseFinder/web2py/applications/coursefinder/&#x27;, &#x27;/Users/justin/Dropbox/183/UCSCCourseFinder/web2py/applications/admin/&#x27;, &#x27;/Users/justin/Dropbox/183/UCSCCourseFinder/web2py/applications/welcome/&#x27;])</div></td></tr><tr><td style="font-weight:bold;vertical-align:top;">applications_parent</td><td style="vertical-align:top;">:</td><td><div>/Users/justin/Dropbox/183/UCSCCourseFinder/web2py</div></td></tr><tr><td style="font-weight:bold;vertical-align:top;">cmd_args</td><td style="vertical-align:top;">:</td><td><div><table></table></div></td></tr><tr><td style="font-weight:bold;vertical-align:top;">cmd_options</td><td style="vertical-align:top;">:</td><td><div>&lt;Values at 0x10379e248: {&#x27;verbose&#x27;: False, &#x27;ip&#x27;: &#x27;127.0.0.1&#x27;, &#x27;debuglevel&#x27;: 30, &#x27;with_scheduler&#x27;: False, &#x27;ips&#x27;: [&#x27;10.12.94.142&#x27;, &#x27;fe80::60c:ceff:fed8:2482%en0&#x27;], &#x27;shutdown_timeout&#x27;: 5, &#x27;taskbar&#x27;: False, &#x27;with_coverage&#x27;: False, &#x27;scheduler_groups&#x27;: None, &#x27;port&#x27;: 8000, &#x27;maxthreads&#x27;: None, &#x27;softcron&#x27;: False, &#x27;server_name&#x27;: &#x27;justins-MacBook-Air.local&#x27;, &#x27;bpython&#x27;: False, &#x27;nogui&#x27;: False, &#x27;pid_filename&#x27;: &#x27;httpserver.pid&#x27;, &#x27;print_errors&#x27;: False, &#x27;extcron&#x27;: False, &#x27;runcron&#x27;: False, &#x27;run_system_tests&#x27;: False, &#x27;test&#x27;: None, &#x27;folder&#x27;: &#x27;/Users/justin/Dropbox/183/UCSCCourseFinder/web2py&#x27;, &#x27;config&#x27;: &#x27;&#x27;, &#x27;minthreads&#x27;: None, &#x27;shell&#x27;: None, &#x27;run&#x27;: &#x27;&#x27;, &#x27;log_filename&#x27;: &#x27;httpserver.log&#x27;, &#x27;profiler_dir&#x27;: None, &#x27;args&#x27;: [&#x27;&#x27;], &#x27;socket_timeout&#x27;: 5, &#x27;ssl_ca_certificate&#x27;: None, &#x27;scheduler&#x27;: None, &#x27;interfaces&#x27;: None, &#x27;ssl_private_key&#x27;: &#x27;&#x27;, &#x27;gae&#x27;: None, &#x27;password&#x27;: &#x27;&lt;ask&gt;&#x27;, &#x27;request_queue_size&#x27;: 5, &#x27;ssl_certificate&#x27;: &#x27;&#x27;, &#x27;cronjob&#x27;: False, &#x27;numthreads&#x27;: None, &#x27;quiet&#x27;: False, &#x27;import_models&#x27;: False, &#x27;timeout&#x27;: 10, &#x27;plain&#x27;: False, &#x27;nobanner&#x27;: False}&gt;</div></td></tr><tr><td style="font-weight:bold;vertical-align:top;">db_sessions</td><td style="vertical-align:top;">:</td><td><div>set([])</div></td></tr><tr><td style="font-weight:bold;vertical-align:top;">debugging</td><td style="vertical-align:top;">:</td><td><div>False</div></td></tr><tr><td style="font-weight:bold;vertical-align:top;">gluon_parent</td><td style="vertical-align:top;">:</td><td><div>/Users/justin/Dropbox/183/UCSCCourseFinder/web2py</div></td></tr><tr><td style="font-weight:bold;vertical-align:top;">http_accept</td><td style="vertical-align:top;">:</td><td><div>text/html,application/xhtml+xml,application/xml;q=0.9,image/webp,*/*;q=0.8</div></td></tr><tr><td style="font-weight:bold;vertical-align:top;">http_accept_encoding</td><td style="vertical-align:top;">:</td><td><div>gzip, deflate, sdch</div></td></tr><tr><td style="font-weight:bold;vertical-align:top;">http_accept_language</td><td style="vertical-align:top;">:</td><td><div>en-US,en;q=0.8</div></td></tr><tr><td style="font-weight:bold;vertical-align:top;">http_cache_control</td><td style="vertical-align:top;">:</td><td><div>max-age=0</div></td></tr><tr><td style="font-weight:bold;vertical-align:top;">http_connection</td><td style="vertical-align:top;">:</td><td><div>keep-alive</div></td></tr><tr><td style="font-weight:bold;vertical-align:top;">http_cookie</td><td style="vertical-align:top;">:</td><td><div>csrftoken=NhgWN9mSffVIXFJY89WikPME4j26JbeB; session_id_myapp=127.0.0.1-c655c996-fe7d-46a9-9558-0a89743d1b2a; session_id_images=127.0.0.1-c197e2d1-38f8-4eec-b05a-4876879ae3ac; session_id_first_one=127.0.0.1-622e2bf1-3e0a-4a68-afee-a1eaacf2a6d6; session_id_third=127.0.0.1-efe93ef6-310a-4f19-9883-0de1cd02cf82; session_id_four=127.0.0.1-3f9e77a4-c67e-4340-9d2a-5719a41864ca; session_id_fifth=127.0.0.1-ed356242-596b-43a6-a10c-9c1f923da948; session_id_csv=127.0.0.1-70344242-6569-40a3-8950-18b70cbadf5e; session_id_first=127.0.0.1-9bcd6f24-f5c4-48f0-b380-98af367d6016; session_id_second=127.0.0.1-a8aac3f3-c4bc-47a3-90ba-59e382129914; session_id_query=127.0.0.1-0f82395c-3640-43df-93cf-4b6b01be1116; session_id_ajax=127.0.0.1-81473164-c6f7-4f7a-b3ed-af731606aa12; session_id_for_sale_listing=127.0.0.1-10ea11a8-d113-4d7b-9190-a84674607f81; session_id_coursefinder=127.0.0.1-597c694d-ee7b-4d13-b23f-c2fa993d0d35; session_id_welcome=127.0.0.1-3f40779a-83ae-4d94-b2d6-5b267def6ee7; session_id_admin=127.0.0.1-9f0740f6-fa21-40e0-9407-7b3944f25c6b</div></td></tr><tr><td style="font-weight:bold;vertical-align:top;">http_host</td><td style="vertical-align:top;">:</td><td><div>127.0.0.1:8000</div></td></tr><tr><td style="font-weight:bold;vertical-align:top;">http_upgrade_insecure_requests</td><td style="vertical-align:top;">:</td><td><div>1</div></td></tr><tr><td style="font-weight:bold;vertical-align:top;">http_user_agent</td><td style="vertical-align:top;">:</td><td><div>Mozilla/5.0 (Macintosh; Intel Mac OS X 10_11_3) AppleWebKit/537.36 (KHTML, like Gecko) Chrome/48.0.2564.116 Safari/537.36</div></td></tr><tr><td style="font-weight:bold;vertical-align:top;">is_jython</td><td style="vertical-align:top;">:</td><td><div>False</div></td></tr><tr><td style="font-weight:bold;vertical-align:top;">is_pypy</td><td style="vertical-align:top;">:</td><td><div>False</div></td></tr><tr><td style="font-weight:bold;vertical-align:top;">is_source</td><td style="vertical-align:top;">:</td><td><div>True</div></td></tr><tr><td style="font-weight:bold;vertical-align:top;">local_hosts</td><td style="vertical-align:top;">:</td><td><div><table><tr><td><div>justins-macbook-air.local</div></td></tr><tr><td><div>fe80::60c:ceff:fed8:2482%en0</div></td></tr><tr><td><div>justins-MacBook-Air.local</div></td></tr><tr><td><div>::1</div></td></tr><tr><td><div>::ffff:127.0.0.1</div></td></tr><tr><td><div>10.12.94.142</div></td></tr><tr><td><div>127.0.0.1</div></td></tr></table></div></td></tr><tr><td style="font-weight:bold;vertical-align:top;">path_info</td><td style="vertical-align:top;">:</td><td><div>/coursefinder</div></td></tr><tr><td style="font-weight:bold;vertical-align:top;">query_string</td><td style="vertical-align:top;">:</td><td><div></div></td></tr><tr><td style="font-weight:bold;vertical-align:top;">remote_addr</td><td style="vertical-align:top;">:</td><td><div>127.0.0.1</div></td></tr><tr><td style="font-weight:bold;vertical-align:top;">remote_port</td><td style="vertical-align:top;">:</td><td><div>59817</div></td></tr><tr><td style="font-weight:bold;vertical-align:top;">request_method</td><td style="vertical-align:top;">:</td><td><div>GET</div></td></tr><tr><td style="font-weight:bold;vertical-align:top;">request_uri</td><td style="vertical-align:top;">:</td><td><div>/coursefinder</div></td></tr><tr><td style="font-weight:bold;vertical-align:top;">script_name</td><td style="vertical-align:top;">:</td><td><div></div></td></tr><tr><td style="font-weight:bold;vertical-align:top;">server_name</td><td style="vertical-align:top;">:</td><td><div>justins-MacBook-Air.local</div></td></tr><tr><td style="font-weight:bold;vertical-align:top;">server_port</td><td style="vertical-align:top;">:</td><td><div>8000</div></td></tr><tr><td style="font-weight:bold;vertical-align:top;">server_protocol</td><td style="vertical-align:top;">:</td><td><div>HTTP/1.1</div></td></tr><tr><td style="font-weight:bold;vertical-align:top;">server_software</td><td style="vertical-align:top;">:</td><td><div>Rocket 1.2.6</div></td></tr><tr><td style="font-weight:bold;vertical-align:top;">web2py_path</td><td style="vertical-align:top;">:</td><td><div>/Users/justin/Dropbox/183/UCSCCourseFinder/web2py</div></td></tr><tr><td style="font-weight:bold;vertical-align:top;">web2py_version</td><td style="vertical-align:top;">:</td><td><div>2.13.4-stable+timestamp.2015.12.26.04.59.39</div></td></tr><tr><td style="font-weight:bold;vertical-align:top;">wsgi.errors</td><td style="vertical-align:top;">:</td><td><div>&lt;open file &#x27;&lt;stderr&gt;&#x27;, mode &#x27;w&#x27; at 0x1024dd1e0&gt;</div></td></tr><tr><td style="font-weight:bold;vertical-align:top;">wsgi.file_wrapper</td><td style="vertical-align:top;">:</td><td><div>&lt;class wsgiref.util.FileWrapper at 0x103737e20&gt;</div></td></tr><tr><td style="font-weight:bold;vertical-align:top;">wsgi.input</td><td style="vertical-align:top;">:</td><td><div>&lt;socket._fileobject object at 0x109340ed0&gt;</div></td></tr><tr><td style="font-weight:bold;vertical-align:top;">wsgi.multiprocess</td><td style="vertical-align:top;">:</td><td><div>False</div></td></tr><tr><td style="font-weight:bold;vertical-align:top;">wsgi.multithread</td><td style="vertical-align:top;">:</td><td><div>True</div></td></tr><tr><td style="font-weight:bold;vertical-align:top;">wsgi.run_once</td><td style="vertical-align:top;">:</td><td><div>False</div></td></tr><tr><td style="font-weight:bold;vertical-align:top;">wsgi.url_scheme</td><td style="vertical-align:top;">:</td><td><div>http</div></td></tr><tr><td style="font-weight:bold;vertical-align:top;">wsgi.version</td><td style="vertical-align:top;">:</td><td><div><table><tr><td><div>1</div></td></tr><tr><td><div>0</div></td></tr></table></div></td></tr><tr><td style="font-weight:bold;vertical-align:top;">wsgi_errors</td><td style="vertical-align:top;">:</td><td><div>&lt;open file &#x27;&lt;stderr&gt;&#x27;, mode &#x27;w&#x27; at 0x1024dd1e0&gt;</div></td></tr><tr><td style="font-weight:bold;vertical-align:top;">wsgi_file_wrapper</td><td style="vertical-align:top;">:</td><td><div>&lt;class wsgiref.util.FileWrapper at 0x103737e20&gt;</div></td></tr><tr><td style="font-weight:bold;vertical-align:top;">wsgi_input</td><td style="vertical-align:top;">:</td><td><div>&lt;socket._fileobject object at 0x109340ed0&gt;</div></td></tr><tr><td style="font-weight:bold;vertical-align:top;">wsgi_multiprocess</td><td style="vertical-align:top;">:</td><td><div>False</div></td></tr><tr><td style="font-weight:bold;vertical-align:top;">wsgi_multithread</td><td style="vertical-align:top;">:</td><td><div>True</div></td></tr><tr><td style="font-weight:bold;vertical-align:top;">wsgi_run_once</td><td style="vertical-align:top;">:</td><td><div>False</div></td></tr><tr><td style="font-weight:bold;vertical-align:top;">wsgi_url_scheme</td><td style="vertical-align:top;">:</td><td><div>http</div></td></tr><tr><td style="font-weight:bold;vertical-align:top;">wsgi_version</td><td style="vertical-align:top;">:</td><td><div><table><tr><td><div>1</div></td></tr><tr><td><div>0</div></td></tr></table></div></td></tr></table></div></td></tr><tr><td style="font-weight:bold;vertical-align:top;">extension</td><td style="vertical-align:top;">:</td><td><div>html</div></td></tr><tr><td style="font-weight:bold;vertical-align:top;">folder</td><td style="vertical-align:top;">:</td><td><div>/Users/justin/Dropbox/183/UCSCCourseFinder/web2py/applications/coursefinder/</div></td></tr><tr><td style="font-weight:bold;vertical-align:top;">function</td><td style="vertical-align:top;">:</td><td><div>index</div></td></tr><tr><td style="font-weight:bold;vertical-align:top;">global_settings</td><td style="vertical-align:top;">:</td><td><div><table><tr><td style="font-weight:bold;vertical-align:top;">app_folders</td><td style="vertical-align:top;">:</td><td><div>set([&#x27;/Users/justin/Dropbox/183/UCSCCourseFinder/web2py/applications/coursefinder/&#x27;, &#x27;/Users/justin/Dropbox/183/UCSCCourseFinder/web2py/applications/admin/&#x27;, &#x27;/Users/justin/Dropbox/183/UCSCCourseFinder/web2py/applications/welcome/&#x27;])</div></td></tr><tr><td style="font-weight:bold;vertical-align:top;">applications_parent</td><td style="vertical-align:top;">:</td><td><div>/Users/justin/Dropbox/183/UCSCCourseFinder/web2py</div></td></tr><tr><td style="font-weight:bold;vertical-align:top;">cmd_args</td><td style="vertical-align:top;">:</td><td><div><table></table></div></td></tr><tr><td style="font-weight:bold;vertical-align:top;">cmd_options</td><td style="vertical-align:top;">:</td><td><div>&lt;Values at 0x10379e248: {&#x27;verbose&#x27;: False, &#x27;ip&#x27;: &#x27;127.0.0.1&#x27;, &#x27;debuglevel&#x27;: 30, &#x27;with_scheduler&#x27;: False, &#x27;ips&#x27;: [&#x27;10.12.94.142&#x27;, &#x27;fe80::60c:ceff:fed8:2482%en0&#x27;], &#x27;shutdown_timeout&#x27;: 5, &#x27;taskbar&#x27;: False, &#x27;with_coverage&#x27;: False, &#x27;scheduler_groups&#x27;: None, &#x27;port&#x27;: 8000, &#x27;maxthreads&#x27;: None, &#x27;softcron&#x27;: False, &#x27;server_name&#x27;: &#x27;justins-MacBook-Air.local&#x27;, &#x27;bpython&#x27;: False, &#x27;nogui&#x27;: False, &#x27;pid_filename&#x27;: &#x27;httpserver.pid&#x27;, &#x27;print_errors&#x27;: False, &#x27;extcron&#x27;: False, &#x27;runcron&#x27;: False, &#x27;run_system_tests&#x27;: False, &#x27;test&#x27;: None, &#x27;folder&#x27;: &#x27;/Users/justin/Dropbox/183/UCSCCourseFinder/web2py&#x27;, &#x27;config&#x27;: &#x27;&#x27;, &#x27;minthreads&#x27;: None, &#x27;shell&#x27;: None, &#x27;run&#x27;: &#x27;&#x27;, &#x27;log_filename&#x27;: &#x27;httpserver.log&#x27;, &#x27;profiler_dir&#x27;: None, &#x27;args&#x27;: [&#x27;&#x27;], &#x27;socket_timeout&#x27;: 5, &#x27;ssl_ca_certificate&#x27;: None, &#x27;scheduler&#x27;: None, &#x27;interfaces&#x27;: None, &#x27;ssl_private_key&#x27;: &#x27;&#x27;, &#x27;gae&#x27;: None, &#x27;password&#x27;: &#x27;&lt;ask&gt;&#x27;, &#x27;request_queue_size&#x27;: 5, &#x27;ssl_certificate&#x27;: &#x27;&#x27;, &#x27;cronjob&#x27;: False, &#x27;numthreads&#x27;: None, &#x27;quiet&#x27;: False, &#x27;import_models&#x27;: False, &#x27;timeout&#x27;: 10, &#x27;plain&#x27;: False, &#x27;nobanner&#x27;: False}&gt;</div></td></tr><tr><td style="font-weight:bold;vertical-align:top;">db_sessions</td><td style="vertical-align:top;">:</td><td><div>set([])</div></td></tr><tr><td style="font-weight:bold;vertical-align:top;">debugging</td><td style="vertical-align:top;">:</td><td><div>False</div></td></tr><tr><td style="font-weight:bold;vertical-align:top;">gluon_parent</td><td style="vertical-align:top;">:</td><td><div>/Users/justin/Dropbox/183/UCSCCourseFinder/web2py</div></td></tr><tr><td style="font-weight:bold;vertical-align:top;">is_jython</td><td style="vertical-align:top;">:</td><td><div>False</div></td></tr><tr><td style="font-weight:bold;vertical-align:top;">is_pypy</td><td style="vertical-align:top;">:</td><td><div>False</div></td></tr><tr><td style="font-weight:bold;vertical-align:top;">is_source</td><td style="vertical-align:top;">:</td><td><div>True</div></td></tr><tr><td style="font-weight:bold;vertical-align:top;">local_hosts</td><td style="vertical-align:top;">:</td><td><div><table><tr><td><div>justins-macbook-air.local</div></td></tr><tr><td><div>fe80::60c:ceff:fed8:2482%en0</div></td></tr><tr><td><div>justins-MacBook-Air.local</div></td></tr><tr><td><div>::1</div></td></tr><tr><td><div>::ffff:127.0.0.1</div></td></tr><tr><td><div>10.12.94.142</div></td></tr><tr><td><div>127.0.0.1</div></td></tr></table></div></td></tr><tr><td style="font-weight:bold;vertical-align:top;">web2py_version</td><td style="vertical-align:top;">:</td><td><div>2.13.4-stable+timestamp.2015.12.26.04.59.39</div></td></tr></table></div></td></tr><tr><td style="font-weight:bold;vertical-align:top;">is_https</td><td style="vertical-align:top;">:</td><td><div>False</div></td></tr><tr><td style="font-weight:bold;vertical-align:top;">is_local</td><td style="vertical-align:top;">:</td><td><div>True</div></td></tr><tr><td style="font-weight:bold;vertical-align:top;">is_restful</td><td style="vertical-align:top;">:</td><td><div>False</div></td></tr><tr><td style="font-weight:bold;vertical-align:top;">is_scheduler</td><td style="vertical-align:top;">:</td><td><div>False</div></td></tr><tr><td style="font-weight:bold;vertical-align:top;">is_shell</td><td style="vertical-align:top;">:</td><td><div>False</div></td></tr><tr><td style="font-weight:bold;vertical-align:top;">now</td><td style="vertical-align:top;">:</td><td><div>datetime.datetime(2016, 3, 13, 14, 53, 7, 390171)</div></td></tr><tr><td style="font-weight:bold;vertical-align:top;">raw_args</td><td style="vertical-align:top;">:</td><td><div></div></td></tr><tr><td style="font-weight:bold;vertical-align:top;">raw_extension</td><td style="vertical-align:top;">:</td><td><div>None</div></td></tr><tr><td style="font-weight:bold;vertical-align:top;">url</td><td style="vertical-align:top;">:</td><td><div>/coursefinder</div></td></tr><tr><td style="font-weight:bold;vertical-align:top;">utcnow</td><td style="vertical-align:top;">:</td><td><div>datetime.datetime(2016, 3, 13, 21, 53, 7, 390183)</div></td></tr><tr><td style="font-weight:bold;vertical-align:top;">wsgi</td><td style="vertical-align:top;">:</td><td><div>&lt;gluon.main.LazyWSGI object at 0x109348910&gt;</div></td></tr></table></div>'
tRp58
sS'frames'
p59
(lp60
(dp61
S'file'
p62
S'/Users/justin/Dropbox/183/UCSCCourseFinder/web2py/gluon/restricted.py'
p63
sS'dump'
p64
(dp65
S'environment'
p66
S"{'A': <class 'gluon.html.A'>, 'ANY_OF': <class 'gluon.validators.ANY_OF'>, 'ASSIGNJS': <function ASSIGNJS>, 'AppConfig': <function AppConfig>, 'Auth': <class 'gluon.tools.Auth'>, 'B': <class 'gluon.html.B'>, 'BEAUTIFY': <class 'gluon.html.BEAUTIFY'>, 'BODY': <class 'gluon.html.BODY'>, 'BR': <class 'gluon.html.BR'>, 'BUTTON': <class 'gluon.html.BUTTON'>, ...}"
p67
sS'ccode'
p68
S'<code object <module> at 0x109345b30, file "/Use...applications/coursefinder/models/db.py", line 13>'
p69
ssS'lnum'
p70
I227
sS'lines'
p71
(dp72
I224
S'            ccode = code'
p73
sI225
S'        else:'
p74
sI226
S'            ccode = compile2(code, layer)'
p75
sI227
S'        exec ccode in environment'
p76
sI228
S'    except HTTP:'
p77
sI229
S'        raise'
p78
sI230
S'    except RestrictedError:'
p79
sI231
S'        # do not encapsulate (obfuscate) the original RestrictedError'
p80
sI222
S'    try:'
p81
sI223
S'        if isinstance(code, types.CodeType):'
p82
ssS'call'
p83
S"(code='# -*- coding: utf-8 -*-\\n\\n#######################...\\ndb.search.subject.requires = IS_IN_SET(subject)\\n', environment={'A': <class 'gluon.html.A'>, 'ANY_OF': <class 'gluon.validators.ANY_OF'>, 'ASSIGNJS': <function ASSIGNJS>, 'AppConfig': <function AppConfig>, 'Auth': <class 'gluon.tools.Auth'>, 'B': <class 'gluon.html.B'>, 'BEAUTIFY': <class 'gluon.html.BEAUTIFY'>, 'BODY': <class 'gluon.html.BODY'>, 'BR': <class 'gluon.html.BR'>, 'BUTTON': <class 'gluon.html.BUTTON'>, ...}, layer='/Users/justin/Dropbox/183/UCSCCourseFinder/web2py/applications/coursefinder/models/db.py')"
p84
sS'func'
p85
S'restricted'
p86
sa(dp87
g62
S'/Users/justin/Dropbox/183/UCSCCourseFinder/web2py/applications/coursefinder/models/db.py'
p88
sg64
(dp89
S'username'
p90
S'undefined'
p91
sS'auth.define_tables'
p92
S'<bound method Auth.define_tables of <gluon.tools.Auth object>>'
p93
sS'builtinFalse'
p94
S'False'
p95
sS'auth'
p96
S'<gluon.tools.Auth object>'
p97
sS'signature'
p98
g91
ssg70
I92
sg71
(dp99
I96
S"mail.settings.server = 'logging' if request.is_local else myconf.take('smtp.server')"
p100
sI87
S''
sI88
S'service = Service()'
p101
sI89
S'plugins = PluginManager()'
p102
sI90
S''
sI91
S'## create all tables needed by auth if not custom tables'
p103
sI92
S'auth.define_tables(username=False, signature=False)'
p104
sI93
S''
sI94
S'## configure email'
p105
sI95
S'mail = auth.settings.mailer'
p106
ssg83
S'()'
p107
sg85
S'<module>'
p108
sa(dp109
g62
S'/Users/justin/Dropbox/183/UCSCCourseFinder/web2py/gluon/tools.py'
p110
sg64
(dp111
S'builtinformat'
p112
S'<built-in function format>'
p113
ssg70
I2363
sg71
(dp114
I2358
S'                    *extra_fields,'
p115
sI2359
S'                    **dict('
p116
sI2360
S'                        migrate=self.__get_migrate(settings.table_user_name,'
p117
sI2361
S'                                                   migrate),'
p118
sI2362
S'                        fake_migrate=fake_migrate,'
p119
sI2363
S"                        format='%(first_name)s %(last_name)s (%(id)s)'))"
p120
sI2364
S"        reference_table_user = 'reference %s' % settings.table_user_name"
p121
sI2365
S'        if settings.table_group_name not in db.tables:'
p122
sI2366
S'            extra_fields = settings.extra_fields.get('
p123
sI2367
S'                settings.table_group_name, []) + signature_list'
p124
ssg83
S'(self=<gluon.tools.Auth object>, username=False, signature=False, enable_tokens=False, migrate=True, fake_migrate=False)'
p125
sg85
S'define_tables'
p126
sa(dp127
g62
S'/Users/justin/Dropbox/183/UCSCCourseFinder/web2py/gluon/packages/dal/pydal/base.py'
p128
sg64
(dp129
S'fields'
p130
S'(<pydal.objects.Field object>, <pydal.objects.Field object>, <pydal.objects.Field object>, <pydal.objects.Field object>, <pydal.objects.Field object>, <pydal.objects.Field object>, <pydal.objects.Field object>, <pydal.objects.Field object>)'
p131
sS'self'
p132
S'<DAL uri="sqlite://storage.sqlite">'
p133
sS'args'
p134
S"{'fake_migrate': False, 'format': '%(first_name)s %(last_name)s (%(id)s)', 'migrate': True}"
p135
sS'tablename'
p136
S"'auth_user'"
p137
sS'table'
p138
g91
sS'self.lazy_define_table'
p139
S'<bound method DAL.lazy_define_table of <DAL uri="sqlite://storage.sqlite">>'
p140
ssg70
I834
sg71
(dp141
I832
S'            table = None'
p142
sI833
S'        else:'
p143
sI834
S'            table = self.lazy_define_table(tablename,*fields,**args)'
p144
sI835
S'        if not tablename in self.tables:'
p145
sI836
S'            self.tables.append(tablename)'
p146
sI837
S'        return table'
p147
sI838
S''
sI829
S'                    % (tablename,invalid_args))'
p148
sI830
S'        if self._lazy_tables and tablename not in self._LAZY_TABLES:'
p149
sI831
S'            self._LAZY_TABLES[tablename] = (tablename,fields,args)'
p150
ssg83
S'(self=<DAL uri="sqlite://storage.sqlite">, tablename=\'auth_user\', *fields=(<pydal.objects.Field object>, <pydal.objects.Field object>, <pydal.objects.Field object>, <pydal.objects.Field object>, <pydal.objects.Field object>, <pydal.objects.Field object>, <pydal.objects.Field object>, <pydal.objects.Field object>), **args={\'fake_migrate\': False, \'format\': \'%(first_name)s %(last_name)s (%(id)s)\', \'migrate\': True})'
p151
sg85
S'define_table'
p152
sa(dp153
g62
S'/Users/justin/Dropbox/183/UCSCCourseFinder/web2py/gluon/packages/dal/pydal/base.py'
p154
sg64
(dp155
S'polymodel'
p156
S'None'
p157
ssg70
I873
sg71
(dp158
I868
S'            try:'
p159
sI869
S'                GLOBAL_LOCKER.acquire()'
p160
sI870
S'                self._lastsql = self._adapter.create_table('
p161
sI871
S'                    table,migrate=migrate,'
p162
sI872
S'                    fake_migrate=fake_migrate,'
p163
sI873
S'                    polymodel=polymodel)'
p164
sI874
S'            finally:'
p165
sI875
S'                GLOBAL_LOCKER.release()'
p166
sI876
S'        else:'
p167
sI877
S'            table._dbt = None'
p168
ssg83
S'(self=<DAL uri="sqlite://storage.sqlite">, tablename=\'auth_user\', *fields=(<pydal.objects.Field object>, <pydal.objects.Field object>, <pydal.objects.Field object>, <pydal.objects.Field object>, <pydal.objects.Field object>, <pydal.objects.Field object>, <pydal.objects.Field object>, <pydal.objects.Field object>), **args={\'fake_migrate\': False, \'format\': \'%(first_name)s %(last_name)s (%(id)s)\', \'migrate\': True})'
p169
sg85
S'lazy_define_table'
p170
sa(dp171
g62
S'/Users/justin/Dropbox/183/UCSCCourseFinder/web2py/gluon/packages/dal/pydal/adapters/base.py'
p172
sg64
(dp173
S'table'
p174
S'<Table auth_user (id,first_name,last_name,email,..._key,reset_password_key,registration_id,courses)>'
p175
sS'table._tablename'
p176
S"'auth_user'"
p177
sS'referenced'
p178
S"'list search'"
p179
sS'builtinKeyError'
p180
S"<type 'exceptions.KeyError'>"
p181
ssg70
I297
sg71
(dp182
I292
S"                        rtablename,rfieldname = referenced.split('.')"
p183
sI293
S'                        rtable = db[rtablename]'
p184
sI294
S'                        rfield = rtable[rfieldname]'
p185
sI295
S'                    except Exception as e:'
p186
sI296
S"                        self.db.logger.debug('Error: %s' %e)"
p187
sI297
S"                        raise KeyError('Cannot resolve reference %s in %s definition' % (referenced, table._tablename))"
p188
sI298
S''
sI299
S'                # must be PK reference or unique'
p189
sI300
S"                if getattr(rtable, '_primarykey', None) and rfieldname in rtable._primarykey or \\"
p190
sI301
S'                        rfield.unique:'
p191
ssg83
S'(self=<pydal.adapters.sqlite.SQLiteAdapter object>, table=<Table auth_user (id,first_name,last_name,email,..._key,reset_password_key,registration_id,courses)>, migrate=True, fake_migrate=False, polymodel=None)'
p192
sg85
S'create_table'
p193
sasS'pyver'
p194
S'Python 2.7.8: /usr/local/opt/python/bin/python2.7 (prefix: /usr/local/Cellar/python/2.7.8_2/Frameworks/Python.framework/Versions/2.7)'
p195
sS'session'
p196
g57
(S's\xe7\x08\x00\x00<div><table><tr><td style="font-weight:bold;vertical-align:top;">auth</td><td style="vertical-align:top;">:</td><td><div><table><tr><td style="font-weight:bold;vertical-align:top;">expiration</td><td style="vertical-align:top;">:</td><td><div>3600</div></td></tr><tr><td style="font-weight:bold;vertical-align:top;">hmac_key</td><td style="vertical-align:top;">:</td><td><div>b63cc7e4-4729-4b05-9e0b-c7f80bdf9dec</div></td></tr><tr><td style="font-weight:bold;vertical-align:top;">last_visit</td><td style="vertical-align:top;">:</td><td><div>datetime.datetime(2016, 3, 13, 14, 53, 7, 390171)</div></td></tr><tr><td style="font-weight:bold;vertical-align:top;">user</td><td style="vertical-align:top;">:</td><td><div><table><tr><td style="font-weight:bold;vertical-align:top;">courses</td><td style="vertical-align:top;">:</td><td><div><table></table></div></td></tr><tr><td style="font-weight:bold;vertical-align:top;">email</td><td style="vertical-align:top;">:</td><td><div>cof@aol.com</div></td></tr><tr><td style="font-weight:bold;vertical-align:top;">first_name</td><td style="vertical-align:top;">:</td><td><div>oergs</div></td></tr><tr><td style="font-weight:bold;vertical-align:top;">id</td><td style="vertical-align:top;">:</td><td><div>3L</div></td></tr><tr><td style="font-weight:bold;vertical-align:top;">last_name</td><td style="vertical-align:top;">:</td><td><div>nasty</div></td></tr><tr><td style="font-weight:bold;vertical-align:top;">registration_id</td><td style="vertical-align:top;">:</td><td><div></div></td></tr><tr><td style="font-weight:bold;vertical-align:top;">registration_key</td><td style="vertical-align:top;">:</td><td><div></div></td></tr><tr><td style="font-weight:bold;vertical-align:top;">reset_password_key</td><td style="vertical-align:top;">:</td><td><div></div></td></tr></table></div></td></tr><tr><td style="font-weight:bold;vertical-align:top;">user_groups</td><td style="vertical-align:top;">:</td><td><div><table><tr><td style="font-weight:bold;vertical-align:top;">3</td><td style="vertical-align:top;">:</td><td><div>user_3</div></td></tr></table></div></td></tr></table></div></td></tr><tr><td style="font-weight:bold;vertical-align:top;">flash</td><td style="vertical-align:top;">:</td><td><div>None</div></td></tr></table></div>'
tRp197
sS'etype'
p198
S"<type 'exceptions.KeyError'>"
p199
sS'date'
p200
S'Sun Mar 13 14:53:07 2016'
p201
sS'response'
p202
g57
(S'sG\x18\x00\x00<div><table><tr><td style="font-weight:bold;vertical-align:top;">body</td><td style="vertical-align:top;">:</td><td><div>&lt;cStringIO.StringO object at 0x1093953e8&gt;</div></td></tr><tr><td style="font-weight:bold;vertical-align:top;">cookies</td><td style="vertical-align:top;">:</td><td><div><table><tr><td style="font-weight:bold;vertical-align:top;">session_id_coursefinder</td><td style="vertical-align:top;">:</td><td><div>127.0.0.1-597c694d-ee7b-4d13-b23f-c2fa993d0d35<table><tr><td style="font-weight:bold;vertical-align:top;">comment</td><td style="vertical-align:top;">:</td><td><div></div></td></tr><tr><td style="font-weight:bold;vertical-align:top;">domain</td><td style="vertical-align:top;">:</td><td><div></div></td></tr><tr><td style="font-weight:bold;vertical-align:top;">expires</td><td style="vertical-align:top;">:</td><td><div></div></td></tr><tr><td style="font-weight:bold;vertical-align:top;">httponly</td><td style="vertical-align:top;">:</td><td><div></div></td></tr><tr><td style="font-weight:bold;vertical-align:top;">max-age</td><td style="vertical-align:top;">:</td><td><div></div></td></tr><tr><td style="font-weight:bold;vertical-align:top;">path</td><td style="vertical-align:top;">:</td><td><div>/</div></td></tr><tr><td style="font-weight:bold;vertical-align:top;">secure</td><td style="vertical-align:top;">:</td><td><div></div></td></tr><tr><td style="font-weight:bold;vertical-align:top;">version</td><td style="vertical-align:top;">:</td><td><div></div></td></tr></table></div></td></tr></table></div></td></tr><tr><td style="font-weight:bold;vertical-align:top;">delimiters</td><td style="vertical-align:top;">:</td><td><div><table><tr><td><div>{{</div></td></tr><tr><td><div>}}</div></td></tr></table></div></td></tr><tr><td style="font-weight:bold;vertical-align:top;">files</td><td style="vertical-align:top;">:</td><td><div><table></table></div></td></tr><tr><td style="font-weight:bold;vertical-align:top;">flash</td><td style="vertical-align:top;">:</td><td><div></div></td></tr><tr><td style="font-weight:bold;vertical-align:top;">form_label_separator</td><td style="vertical-align:top;">:</td><td><div></div></td></tr><tr><td style="font-weight:bold;vertical-align:top;">formstyle</td><td style="vertical-align:top;">:</td><td><div>bootstrap3_inline</div></td></tr><tr><td style="font-weight:bold;vertical-align:top;">generic_patterns</td><td style="vertical-align:top;">:</td><td><div><table><tr><td><div>*</div></td></tr></table></div></td></tr><tr><td style="font-weight:bold;vertical-align:top;">headers</td><td style="vertical-align:top;">:</td><td><div><table><tr><td style="font-weight:bold;vertical-align:top;">X-Powered-By</td><td style="vertical-align:top;">:</td><td><div>web2py</div></td></tr></table></div></td></tr><tr><td style="font-weight:bold;vertical-align:top;">menu</td><td style="vertical-align:top;">:</td><td><div><table></table></div></td></tr><tr><td style="font-weight:bold;vertical-align:top;">meta</td><td style="vertical-align:top;">:</td><td><div><table></table></div></td></tr><tr><td style="font-weight:bold;vertical-align:top;">models_to_run</td><td style="vertical-align:top;">:</td><td><div><table><tr><td><div>^\\w+\\.py$</div></td></tr><tr><td><div>^default/\\w+\\.py$</div></td></tr><tr><td><div>^default/index/\\w+\\.py$</div></td></tr></table></div></td></tr><tr><td style="font-weight:bold;vertical-align:top;">postprocessing</td><td style="vertical-align:top;">:</td><td><div><table></table></div></td></tr><tr><td style="font-weight:bold;vertical-align:top;">session_client</td><td style="vertical-align:top;">:</td><td><div>127.0.0.1</div></td></tr><tr><td style="font-weight:bold;vertical-align:top;">session_cookie_compression_level</td><td style="vertical-align:top;">:</td><td><div>None</div></td></tr><tr><td style="font-weight:bold;vertical-align:top;">session_cookie_expires</td><td style="vertical-align:top;">:</td><td><div>None</div></td></tr><tr><td style="font-weight:bold;vertical-align:top;">session_cookie_key</td><td style="vertical-align:top;">:</td><td><div>None</div></td></tr><tr><td style="font-weight:bold;vertical-align:top;">session_data_name</td><td style="vertical-align:top;">:</td><td><div>session_data_coursefinder</div></td></tr><tr><td style="font-weight:bold;vertical-align:top;">session_file</td><td style="vertical-align:top;">:</td><td><div>&lt;open file &#x27;/Users/justin/Dropbox/183/UCSCCourseFinder/web2py/applications/coursefinder/sessions/1bd/0f5/127.0.0.1-597c694d-ee7b-4d13-b23f-c2fa993d0d35&#x27;, mode &#x27;rb+&#x27; at 0x1092b1ed0&gt;</div></td></tr><tr><td style="font-weight:bold;vertical-align:top;">session_filename</td><td style="vertical-align:top;">:</td><td><div>/Users/justin/Dropbox/183/UCSCCourseFinder/web2py/applications/coursefinder/sessions/127.0.0.1-597c694d-ee7b-4d13-b23f-c2fa993d0d35</div></td></tr><tr><td style="font-weight:bold;vertical-align:top;">session_hash</td><td style="vertical-align:top;">:</td><td><div>015d6548aa18fa8f22958e7c5bebe5b4</div></td></tr><tr><td style="font-weight:bold;vertical-align:top;">session_id</td><td style="vertical-align:top;">:</td><td><div>127.0.0.1-597c694d-ee7b-4d13-b23f-c2fa993d0d35</div></td></tr><tr><td style="font-weight:bold;vertical-align:top;">session_id_name</td><td style="vertical-align:top;">:</td><td><div>session_id_coursefinder</div></td></tr><tr><td style="font-weight:bold;vertical-align:top;">session_locked</td><td style="vertical-align:top;">:</td><td><div>True</div></td></tr><tr><td style="font-weight:bold;vertical-align:top;">session_masterapp</td><td style="vertical-align:top;">:</td><td><div>coursefinder</div></td></tr><tr><td style="font-weight:bold;vertical-align:top;">session_new</td><td style="vertical-align:top;">:</td><td><div>False</div></td></tr><tr><td style="font-weight:bold;vertical-align:top;">session_storage_type</td><td style="vertical-align:top;">:</td><td><div>file</div></td></tr><tr><td style="font-weight:bold;vertical-align:top;">status</td><td style="vertical-align:top;">:</td><td><div>200</div></td></tr><tr><td style="font-weight:bold;vertical-align:top;">view</td><td style="vertical-align:top;">:</td><td><div>default/index.html</div></td></tr></table></div>'
tRp203
sS'locals'
p204
(dp205
S'referenced'
p206
S"'list search'"
p207
sS'migrate'
p208
S'True'
p209
sS'constraint_name'
p210
S"'auth_user_courses__constraint'"
p211
sS'table'
p212
S'<Table auth_user (id,first_name,last_name,email,..._key,reset_password_key,registration_id,courses)>'
p213
sS'postcreation_fields'
p214
S'[]'
p215
sS'field_type'
p216
S"'reference:list search'"
p217
sS'self'
p218
S'<pydal.adapters.sqlite.SQLiteAdapter object>'
p219
sS'type_name'
p220
S"'reference'"
p221
sS'tablename'
p222
S"'auth_user'"
p223
sS'field'
p224
S'<pydal.objects.Field object>'
p225
sS'ftype'
p226
S"'CHAR(512)'"
p227
sS'polymodel'
p228
S'None'
p229
sS'db'
p230
S'<DAL uri="sqlite://storage.sqlite">'
p231
sS'fake_migrate'
p232
g95
sS'e'
S"ValueError('need more than 1 value to unpack',)"
p233
sS'sql_fields'
p234
S"{'email': {'length': 512, 'notnull': False, 'sortable': 4, 'sql': 'CHAR(512)', 'type': 'string', 'unique': False}, 'first_name': {'length': 128, 'notnull': False, 'sortable': 2, 'sql': 'CHAR(128)', 'type': 'string', 'unique': False}, 'id': {'length': 512, 'notnull': False, 'sortable': 1, 'sql': 'INTEGER PRIMARY KEY AUTOINCREMENT', 'type': 'id', 'unique': False}, 'last_name': {'length': 128, 'notnull': False, 'sortable': 3, 'sql': 'CHAR(128)', 'type': 'string', 'unique': False}, 'password': {'length': 512, 'notnull': False, 'sortable': 5, 'sql': 'CHAR(512)', 'type': 'password', 'unique': False}, 'registration_id': {'length': 512, 'notnull': False, 'sortable': 8, 'sql': 'CHAR(512)', 'type': 'string', 'unique': False}, 'registration_key': {'length': 512, 'notnull': False, 'sortable': 6, 'sql': 'CHAR(512)', 'type': 'string', 'unique': False}, 'reset_password_key': {'length': 512, 'notnull': False, 'sortable': 7, 'sql': 'CHAR(512)', 'type': 'string', 'unique': False}}"
p235
sS'field_name'
p236
S"'courses'"
p237
sS'types'
p238
S"{'big-id': 'INTEGER PRIMARY KEY AUTOINCREMENT', 'big-reference': 'INTEGER REFERENCES %(foreign_key)s ON DELETE %(on_delete_action)s %(null)s %(unique)s', 'bigint': 'INTEGER', 'blob': 'BLOB', 'boolean': 'CHAR(1)', 'date': 'DATE', 'datetime': 'TIMESTAMP', 'decimal': 'DOUBLE', 'double': 'DOUBLE', 'float': 'DOUBLE', ...}"
p239
sS'sortable'
p240
S'9'
sS'sql_fields_aux'
p241
S"{'email': {'sql': 'CHAR(512)'}, 'first_name': {'sql': 'CHAR(128)'}, 'id': {'sql': 'INTEGER PRIMARY KEY AUTOINCREMENT'}, 'last_name': {'sql': 'CHAR(128)'}, 'password': {'sql': 'CHAR(512)'}, 'registration_id': {'sql': 'CHAR(512)'}, 'registration_key': {'sql': 'CHAR(512)'}, 'reset_password_key': {'sql': 'CHAR(512)'}}"
p242
sS'TFK'
p243
g45
sS'fields'
p244
S"['id INTEGER PRIMARY KEY AUTOINCREMENT', 'first_name CHAR(128)', 'last_name CHAR(128)', 'email CHAR(512)', 'password CHAR(512)', 'registration_key CHAR(512)', 'reset_password_key CHAR(512)', 'registration_id CHAR(512)']"
p245
sssS'traceback'
p246
S'Traceback (most recent call last):\n  File "/Users/justin/Dropbox/183/UCSCCourseFinder/web2py/gluon/restricted.py", line 227, in restricted\n    exec ccode in environment\n  File "/Users/justin/Dropbox/183/UCSCCourseFinder/web2py/applications/coursefinder/models/db.py", line 92, in <module>\n    auth.define_tables(username=False, signature=False)\n  File "/Users/justin/Dropbox/183/UCSCCourseFinder/web2py/gluon/tools.py", line 2363, in define_tables\n    format=\'%(first_name)s %(last_name)s (%(id)s)\'))\n  File "/Users/justin/Dropbox/183/UCSCCourseFinder/web2py/gluon/packages/dal/pydal/base.py", line 834, in define_table\n    table = self.lazy_define_table(tablename,*fields,**args)\n  File "/Users/justin/Dropbox/183/UCSCCourseFinder/web2py/gluon/packages/dal/pydal/base.py", line 873, in lazy_define_table\n    polymodel=polymodel)\n  File "/Users/justin/Dropbox/183/UCSCCourseFinder/web2py/gluon/packages/dal/pydal/adapters/base.py", line 297, in create_table\n    raise KeyError(\'Cannot resolve reference %s in %s definition\' % (referenced, table._tablename))\nKeyError: \'Cannot resolve reference list search in auth_user definition\'\n'
p247
s.